target datalayout = "e-m:e-p270:32:32-p271:32:32-p272:64:64-i64:64-i128:128-f80:128-n8:16:32:64-S128"
target triple = "x86_64-pc-linux-gnu"

%"class.pxrInternal_v0_24__pxrReserved__::pxr_double_conversion::Bignum" = type { i16, i16, [128 x i32] }

; Function Attrs: mustprogress nounwind uwtable
define noundef nonnull align 4 dereferenceable(4) ptr @_ZNK32pxrInternal_v0_24__pxrReserved__21pxr_double_conversion6Bignum8RawBigitEi(ptr noundef nonnull align 4 dereferenceable(516) %0, i32 noundef %1) #0 align 2 {
  %3 = alloca ptr, align 8
  %4 = alloca i32, align 4
  store ptr %0, ptr %3, align 8
  store i32 %1, ptr %4, align 4
  %5 = load ptr, ptr %3, align 8
  %6 = getelementptr inbounds nuw %"class.pxrInternal_v0_24__pxrReserved__::pxr_double_conversion::Bignum", ptr %5, i32 0, i32 2
  %7 = load i32, ptr %4, align 4
  %8 = sext i32 %7 to i64
  %9 = getelementptr inbounds [128 x i32], ptr %6, i64 0, i64 %8
  ret ptr %9
}

; Function Attrs: mustprogress nounwind uwtable
define noundef nonnull align 4 dereferenceable(4) ptr @_ZN32pxrInternal_v0_24__pxrReserved__21pxr_double_conversion6Bignum8RawBigitEi(ptr noundef nonnull align 4 dereferenceable(516) %0, i32 noundef %1) #0 align 2 {
  %3 = alloca ptr, align 8
  %4 = alloca i32, align 4
  store ptr %0, ptr %3, align 8
  store i32 %1, ptr %4, align 4
  %5 = load ptr, ptr %3, align 8
  %6 = getelementptr inbounds nuw %"class.pxrInternal_v0_24__pxrReserved__::pxr_double_conversion::Bignum", ptr %5, i32 0, i32 2
  %7 = load i32, ptr %4, align 4
  %8 = sext i32 %7 to i64
  %9 = getelementptr inbounds [128 x i32], ptr %6, i64 0, i64 %8
  ret ptr %9
}

; Function Attrs: mustprogress nounwind uwtable
define linkonce_odr void @_ZN32pxrInternal_v0_24__pxrReserved__21pxr_double_conversion6Bignum14EnsureCapacityEi(i32 noundef %0) #0 comdat align 2 {
  %2 = alloca i32, align 4
  store i32 %0, ptr %2, align 4
  %3 = load i32, ptr %2, align 4
  %4 = icmp sgt i32 %3, 128
  br i1 %4, label %5, label %6

5:                                                ; preds = %1
  call void @abort() #4
  unreachable

6:                                                ; preds = %1
  ret void
}

; Function Attrs: mustprogress nounwind uwtable
define linkonce_odr noundef nonnull align 4 dereferenceable(4) ptr @_ZSt3maxIiERKT_S2_S2_(ptr noundef nonnull align 4 dereferenceable(4) %0, ptr noundef nonnull align 4 dereferenceable(4) %1) #0 comdat {
  %3 = alloca ptr, align 8
  %4 = alloca ptr, align 8
  %5 = alloca ptr, align 8
  store ptr %0, ptr %4, align 8
  store ptr %1, ptr %5, align 8
  %6 = load ptr, ptr %4, align 8
  %7 = load i32, ptr %6, align 4
  %8 = load ptr, ptr %5, align 8
  %9 = load i32, ptr %8, align 4
  %10 = icmp slt i32 %7, %9
  br i1 %10, label %11, label %13

11:                                               ; preds = %2
  %12 = load ptr, ptr %5, align 8
  store ptr %12, ptr %3, align 8
  br label %15

13:                                               ; preds = %2
  %14 = load ptr, ptr %4, align 8
  store ptr %14, ptr %3, align 8
  br label %15

15:                                               ; preds = %13, %11
  %16 = load ptr, ptr %3, align 8
  ret ptr %16
}

; Function Attrs: mustprogress nounwind uwtable
define linkonce_odr noundef i32 @_ZNK32pxrInternal_v0_24__pxrReserved__21pxr_double_conversion6Bignum11BigitLengthEv(ptr noundef nonnull align 4 dereferenceable(516) %0) #0 comdat align 2 {
  %2 = alloca ptr, align 8
  store ptr %0, ptr %2, align 8
  %3 = load ptr, ptr %2, align 8
  %4 = getelementptr inbounds nuw %"class.pxrInternal_v0_24__pxrReserved__::pxr_double_conversion::Bignum", ptr %3, i32 0, i32 0
  %5 = load i16, ptr %4, align 4
  %6 = sext i16 %5 to i32
  %7 = getelementptr inbounds nuw %"class.pxrInternal_v0_24__pxrReserved__::pxr_double_conversion::Bignum", ptr %3, i32 0, i32 1
  %8 = load i16, ptr %7, align 2
  %9 = sext i16 %8 to i32
  %10 = add nsw i32 %6, %9
  ret i32 %10
}

; Function Attrs: mustprogress uwtable
define void @_ZN32pxrInternal_v0_24__pxrReserved__21pxr_double_conversion6Bignum5AlignERKS1_(ptr noundef nonnull align 4 dereferenceable(516) %0, ptr noundef nonnull align 4 dereferenceable(516) %1) #1 align 2 {
  %3 = alloca ptr, align 8
  %4 = alloca ptr, align 8
  %5 = alloca i32, align 4
  %6 = alloca i32, align 4
  %7 = alloca i32, align 4
  store ptr %0, ptr %3, align 8
  store ptr %1, ptr %4, align 8
  %8 = load ptr, ptr %3, align 8
  %9 = getelementptr inbounds nuw %"class.pxrInternal_v0_24__pxrReserved__::pxr_double_conversion::Bignum", ptr %8, i32 0, i32 1
  %10 = load i16, ptr %9, align 2
  %11 = sext i16 %10 to i32
  %12 = load ptr, ptr %4, align 8
  %13 = getelementptr inbounds nuw %"class.pxrInternal_v0_24__pxrReserved__::pxr_double_conversion::Bignum", ptr %12, i32 0, i32 1
  %14 = load i16, ptr %13, align 2
  %15 = sext i16 %14 to i32
  %16 = icmp sgt i32 %11, %15
  br i1 %16, label %17, label %77

17:                                               ; preds = %2
  %18 = getelementptr inbounds nuw %"class.pxrInternal_v0_24__pxrReserved__::pxr_double_conversion::Bignum", ptr %8, i32 0, i32 1
  %19 = load i16, ptr %18, align 2
  %20 = sext i16 %19 to i32
  %21 = load ptr, ptr %4, align 8
  %22 = getelementptr inbounds nuw %"class.pxrInternal_v0_24__pxrReserved__::pxr_double_conversion::Bignum", ptr %21, i32 0, i32 1
  %23 = load i16, ptr %22, align 2
  %24 = sext i16 %23 to i32
  %25 = sub nsw i32 %20, %24
  store i32 %25, ptr %5, align 4
  %26 = getelementptr inbounds nuw %"class.pxrInternal_v0_24__pxrReserved__::pxr_double_conversion::Bignum", ptr %8, i32 0, i32 0
  %27 = load i16, ptr %26, align 4
  %28 = sext i16 %27 to i32
  %29 = load i32, ptr %5, align 4
  %30 = add nsw i32 %28, %29
  call void @_ZN32pxrInternal_v0_24__pxrReserved__21pxr_double_conversion6Bignum14EnsureCapacityEi(i32 noundef %30)
  %31 = getelementptr inbounds nuw %"class.pxrInternal_v0_24__pxrReserved__::pxr_double_conversion::Bignum", ptr %8, i32 0, i32 0
  %32 = load i16, ptr %31, align 4
  %33 = sext i16 %32 to i32
  %34 = sub nsw i32 %33, 1
  store i32 %34, ptr %6, align 4
  br label %35

35:                                               ; preds = %46, %17
  %36 = load i32, ptr %6, align 4
  %37 = icmp sge i32 %36, 0
  br i1 %37, label %38, label %49

38:                                               ; preds = %35
  %39 = load i32, ptr %6, align 4
  %40 = call noundef nonnull align 4 dereferenceable(4) ptr @_ZN32pxrInternal_v0_24__pxrReserved__21pxr_double_conversion6Bignum8RawBigitEi(ptr noundef nonnull align 4 dereferenceable(516) %8, i32 noundef %39)
  %41 = load i32, ptr %40, align 4
  %42 = load i32, ptr %6, align 4
  %43 = load i32, ptr %5, align 4
  %44 = add nsw i32 %42, %43
  %45 = call noundef nonnull align 4 dereferenceable(4) ptr @_ZN32pxrInternal_v0_24__pxrReserved__21pxr_double_conversion6Bignum8RawBigitEi(ptr noundef nonnull align 4 dereferenceable(516) %8, i32 noundef %44)
  store i32 %41, ptr %45, align 4
  br label %46

46:                                               ; preds = %38
  %47 = load i32, ptr %6, align 4
  %48 = add nsw i32 %47, -1
  store i32 %48, ptr %6, align 4
  br label %35, !llvm.loop !16

49:                                               ; preds = %35
  store i32 0, ptr %7, align 4
  br label %50

50:                                               ; preds = %57, %49
  %51 = load i32, ptr %7, align 4
  %52 = load i32, ptr %5, align 4
  %53 = icmp slt i32 %51, %52
  br i1 %53, label %54, label %60

54:                                               ; preds = %50
  %55 = load i32, ptr %7, align 4
  %56 = call noundef nonnull align 4 dereferenceable(4) ptr @_ZN32pxrInternal_v0_24__pxrReserved__21pxr_double_conversion6Bignum8RawBigitEi(ptr noundef nonnull align 4 dereferenceable(516) %8, i32 noundef %55)
  store i32 0, ptr %56, align 4
  br label %57

57:                                               ; preds = %54
  %58 = load i32, ptr %7, align 4
  %59 = add nsw i32 %58, 1
  store i32 %59, ptr %7, align 4
  br label %50, !llvm.loop !17

60:                                               ; preds = %50
  %61 = load i32, ptr %5, align 4
  %62 = trunc i32 %61 to i16
  %63 = sext i16 %62 to i32
  %64 = getelementptr inbounds nuw %"class.pxrInternal_v0_24__pxrReserved__::pxr_double_conversion::Bignum", ptr %8, i32 0, i32 0
  %65 = load i16, ptr %64, align 4
  %66 = sext i16 %65 to i32
  %67 = add nsw i32 %66, %63
  %68 = trunc i32 %67 to i16
  store i16 %68, ptr %64, align 4
  %69 = load i32, ptr %5, align 4
  %70 = trunc i32 %69 to i16
  %71 = sext i16 %70 to i32
  %72 = getelementptr inbounds nuw %"class.pxrInternal_v0_24__pxrReserved__::pxr_double_conversion::Bignum", ptr %8, i32 0, i32 1
  %73 = load i16, ptr %72, align 2
  %74 = sext i16 %73 to i32
  %75 = sub nsw i32 %74, %71
  %76 = trunc i32 %75 to i16
  store i16 %76, ptr %72, align 2
  br label %77

77:                                               ; preds = %60, %2
  ret void
}

; Function Attrs: mustprogress uwtable
define void @_ZN32pxrInternal_v0_24__pxrReserved__21pxr_double_conversion6Bignum9AddBignumERKS1_(ptr noundef nonnull align 4 dereferenceable(516) %0, ptr noundef nonnull align 4 dereferenceable(516) %1) #1 align 2 {
  %3 = alloca ptr, align 8
  %4 = alloca ptr, align 8
  %5 = alloca i32, align 4
  %6 = alloca i32, align 4
  %7 = alloca i32, align 4
  %8 = alloca i32, align 4
  %9 = alloca i32, align 4
  %10 = alloca i32, align 4
  %11 = alloca i32, align 4
  %12 = alloca i32, align 4
  %13 = alloca i32, align 4
  %14 = alloca i32, align 4
  %15 = alloca i32, align 4
  store ptr %0, ptr %3, align 8
  store ptr %1, ptr %4, align 8
  %16 = load ptr, ptr %3, align 8
  %17 = load ptr, ptr %4, align 8
  call void @_ZN32pxrInternal_v0_24__pxrReserved__21pxr_double_conversion6Bignum5AlignERKS1_(ptr noundef nonnull align 4 dereferenceable(516) %16, ptr noundef nonnull align 4 dereferenceable(516) %17)
  %18 = call noundef i32 @_ZNK32pxrInternal_v0_24__pxrReserved__21pxr_double_conversion6Bignum11BigitLengthEv(ptr noundef nonnull align 4 dereferenceable(516) %16)
  store i32 %18, ptr %5, align 4
  %19 = load ptr, ptr %4, align 8
  %20 = call noundef i32 @_ZNK32pxrInternal_v0_24__pxrReserved__21pxr_double_conversion6Bignum11BigitLengthEv(ptr noundef nonnull align 4 dereferenceable(516) %19)
  store i32 %20, ptr %6, align 4
  %21 = call noundef nonnull align 4 dereferenceable(4) ptr @_ZSt3maxIiERKT_S2_S2_(ptr noundef nonnull align 4 dereferenceable(4) %5, ptr noundef nonnull align 4 dereferenceable(4) %6)
  %22 = load i32, ptr %21, align 4
  %23 = add nsw i32 1, %22
  %24 = getelementptr inbounds nuw %"class.pxrInternal_v0_24__pxrReserved__::pxr_double_conversion::Bignum", ptr %16, i32 0, i32 1
  %25 = load i16, ptr %24, align 2
  %26 = sext i16 %25 to i32
  %27 = sub nsw i32 %23, %26
  call void @_ZN32pxrInternal_v0_24__pxrReserved__21pxr_double_conversion6Bignum14EnsureCapacityEi(i32 noundef %27)
  store i32 0, ptr %7, align 4
  %28 = load ptr, ptr %4, align 8
  %29 = getelementptr inbounds nuw %"class.pxrInternal_v0_24__pxrReserved__::pxr_double_conversion::Bignum", ptr %28, i32 0, i32 1
  %30 = load i16, ptr %29, align 2
  %31 = sext i16 %30 to i32
  %32 = getelementptr inbounds nuw %"class.pxrInternal_v0_24__pxrReserved__::pxr_double_conversion::Bignum", ptr %16, i32 0, i32 1
  %33 = load i16, ptr %32, align 2
  %34 = sext i16 %33 to i32
  %35 = sub nsw i32 %31, %34
  store i32 %35, ptr %8, align 4
  %36 = getelementptr inbounds nuw %"class.pxrInternal_v0_24__pxrReserved__::pxr_double_conversion::Bignum", ptr %16, i32 0, i32 0
  %37 = load i16, ptr %36, align 4
  %38 = sext i16 %37 to i32
  store i32 %38, ptr %9, align 4
  br label %39

39:                                               ; preds = %46, %2
  %40 = load i32, ptr %9, align 4
  %41 = load i32, ptr %8, align 4
  %42 = icmp slt i32 %40, %41
  br i1 %42, label %43, label %49

43:                                               ; preds = %39
  %44 = load i32, ptr %9, align 4
  %45 = call noundef nonnull align 4 dereferenceable(4) ptr @_ZN32pxrInternal_v0_24__pxrReserved__21pxr_double_conversion6Bignum8RawBigitEi(ptr noundef nonnull align 4 dereferenceable(516) %16, i32 noundef %44)
  store i32 0, ptr %45, align 4
  br label %46

46:                                               ; preds = %43
  %47 = load i32, ptr %9, align 4
  %48 = add nsw i32 %47, 1
  store i32 %48, ptr %9, align 4
  br label %39, !llvm.loop !13

49:                                               ; preds = %39
  store i32 0, ptr %10, align 4
  br label %50

50:                                               ; preds = %86, %49
  %51 = load i32, ptr %10, align 4
  %52 = load ptr, ptr %4, align 8
  %53 = getelementptr inbounds nuw %"class.pxrInternal_v0_24__pxrReserved__::pxr_double_conversion::Bignum", ptr %52, i32 0, i32 0
  %54 = load i16, ptr %53, align 4
  %55 = sext i16 %54 to i32
  %56 = icmp slt i32 %51, %55
  br i1 %56, label %57, label %89

57:                                               ; preds = %50
  %58 = load i32, ptr %8, align 4
  %59 = getelementptr inbounds nuw %"class.pxrInternal_v0_24__pxrReserved__::pxr_double_conversion::Bignum", ptr %16, i32 0, i32 0
  %60 = load i16, ptr %59, align 4
  %61 = sext i16 %60 to i32
  %62 = icmp slt i32 %58, %61
  br i1 %62, label %63, label %67

63:                                               ; preds = %57
  %64 = load i32, ptr %8, align 4
  %65 = call noundef nonnull align 4 dereferenceable(4) ptr @_ZN32pxrInternal_v0_24__pxrReserved__21pxr_double_conversion6Bignum8RawBigitEi(ptr noundef nonnull align 4 dereferenceable(516) %16, i32 noundef %64)
  %66 = load i32, ptr %65, align 4
  br label %68

67:                                               ; preds = %57
  br label %68

68:                                               ; preds = %67, %63
  %69 = phi i32 [ %66, %63 ], [ 0, %67 ]
  store i32 %69, ptr %11, align 4
  %70 = load i32, ptr %11, align 4
  %71 = load ptr, ptr %4, align 8
  %72 = load i32, ptr %10, align 4
  %73 = call noundef nonnull align 4 dereferenceable(4) ptr @_ZNK32pxrInternal_v0_24__pxrReserved__21pxr_double_conversion6Bignum8RawBigitEi(ptr noundef nonnull align 4 dereferenceable(516) %71, i32 noundef %72)
  %74 = load i32, ptr %73, align 4
  %75 = add i32 %70, %74
  %76 = load i32, ptr %7, align 4
  %77 = add i32 %75, %76
  store i32 %77, ptr %12, align 4
  %78 = load i32, ptr %12, align 4
  %79 = and i32 %78, 268435455
  %80 = load i32, ptr %8, align 4
  %81 = call noundef nonnull align 4 dereferenceable(4) ptr @_ZN32pxrInternal_v0_24__pxrReserved__21pxr_double_conversion6Bignum8RawBigitEi(ptr noundef nonnull align 4 dereferenceable(516) %16, i32 noundef %80)
  store i32 %79, ptr %81, align 4
  %82 = load i32, ptr %12, align 4
  %83 = lshr i32 %82, 28
  store i32 %83, ptr %7, align 4
  %84 = load i32, ptr %8, align 4
  %85 = add nsw i32 %84, 1
  store i32 %85, ptr %8, align 4
  br label %86

86:                                               ; preds = %68
  %87 = load i32, ptr %10, align 4
  %88 = add nsw i32 %87, 1
  store i32 %88, ptr %10, align 4
  br label %50, !llvm.loop !14

89:                                               ; preds = %50
  br label %90

90:                                               ; preds = %104, %89
  %91 = load i32, ptr %7, align 4
  %92 = icmp ne i32 %91, 0
  br i1 %92, label %93, label %117

93:                                               ; preds = %90
  %94 = load i32, ptr %8, align 4
  %95 = getelementptr inbounds nuw %"class.pxrInternal_v0_24__pxrReserved__::pxr_double_conversion::Bignum", ptr %16, i32 0, i32 0
  %96 = load i16, ptr %95, align 4
  %97 = sext i16 %96 to i32
  %98 = icmp slt i32 %94, %97
  br i1 %98, label %99, label %103

99:                                               ; preds = %93
  %100 = load i32, ptr %8, align 4
  %101 = call noundef nonnull align 4 dereferenceable(4) ptr @_ZN32pxrInternal_v0_24__pxrReserved__21pxr_double_conversion6Bignum8RawBigitEi(ptr noundef nonnull align 4 dereferenceable(516) %16, i32 noundef %100)
  %102 = load i32, ptr %101, align 4
  br label %104

103:                                              ; preds = %93
  br label %104

104:                                              ; preds = %103, %99
  %105 = phi i32 [ %102, %99 ], [ 0, %103 ]
  store i32 %105, ptr %13, align 4
  %106 = load i32, ptr %13, align 4
  %107 = load i32, ptr %7, align 4
  %108 = add i32 %106, %107
  store i32 %108, ptr %14, align 4
  %109 = load i32, ptr %14, align 4
  %110 = and i32 %109, 268435455
  %111 = load i32, ptr %8, align 4
  %112 = call noundef nonnull align 4 dereferenceable(4) ptr @_ZN32pxrInternal_v0_24__pxrReserved__21pxr_double_conversion6Bignum8RawBigitEi(ptr noundef nonnull align 4 dereferenceable(516) %16, i32 noundef %111)
  store i32 %110, ptr %112, align 4
  %113 = load i32, ptr %14, align 4
  %114 = lshr i32 %113, 28
  store i32 %114, ptr %7, align 4
  %115 = load i32, ptr %8, align 4
  %116 = add nsw i32 %115, 1
  store i32 %116, ptr %8, align 4
  br label %90, !llvm.loop !15

117:                                              ; preds = %90
  %118 = getelementptr inbounds nuw %"class.pxrInternal_v0_24__pxrReserved__::pxr_double_conversion::Bignum", ptr %16, i32 0, i32 0
  %119 = load i16, ptr %118, align 4
  %120 = sext i16 %119 to i32
  store i32 %120, ptr %15, align 4
  %121 = call noundef nonnull align 4 dereferenceable(4) ptr @_ZSt3maxIiERKT_S2_S2_(ptr noundef nonnull align 4 dereferenceable(4) %8, ptr noundef nonnull align 4 dereferenceable(4) %15)
  %122 = load i32, ptr %121, align 4
  %123 = trunc i32 %122 to i16
  %124 = getelementptr inbounds nuw %"class.pxrInternal_v0_24__pxrReserved__::pxr_double_conversion::Bignum", ptr %16, i32 0, i32 0
  store i16 %123, ptr %124, align 4
  ret void
}