; Function Attrs: mustprogress nofree nounwind uwtable
define void @_ZN32pxrInternal_v0_24__pxrReserved__21pxr_double_conversion6Bignum9AddBignumERKS1_(ptr nocapture noundef nonnull align 4 dereferenceable(516) %0, ptr nocapture noundef nonnull readonly align 4 dereferenceable(516) %1) local_unnamed_addr #4 align 2 {
  %3 = getelementptr inbounds nuw i8, ptr %0, i64 2
  %4 = load i16, ptr %3, align 2
  %5 = getelementptr inbounds nuw i8, ptr %1, i64 2
  %6 = load i16, ptr %5, align 2
  %7 = icmp sgt i16 %4, %6
  %.pre = load i16, ptr %0, align 4
  br i1 %7, label %8, label %_ZN32pxrInternal_v0_24__pxrReserved__21pxr_double_conversion6Bignum5AlignERKS1_.exit

8:                                                ; preds = %2
  %9 = sext i16 %6 to i32
  %10 = sext i16 %4 to i32
  %11 = sub nsw i32 %10, %9
  %12 = sext i16 %.pre to i32
  %13 = add nsw i32 %11, %12
  %14 = icmp sgt i32 %13, 128
  br i1 %14, label %19, label %_ZN32pxrInternal_v0_24__pxrReserved__21pxr_double_conversion6Bignum14EnsureCapacityEi.exit.preheader.i

_ZN32pxrInternal_v0_24__pxrReserved__21pxr_double_conversion6Bignum14EnsureCapacityEi.exit.preheader.i: ; preds = %8
  %15 = icmp sgt i16 %.pre, 0
  br i1 %15, label %.lr.ph.i, label %.preheader.i

.lr.ph.i:                                         ; preds = %_ZN32pxrInternal_v0_24__pxrReserved__21pxr_double_conversion6Bignum14EnsureCapacityEi.exit.preheader.i
  %16 = getelementptr inbounds nuw i8, ptr %0, i64 4
  %17 = zext nneg i16 %.pre to i64
  %18 = sext i32 %11 to i64
  br label %_ZN32pxrInternal_v0_24__pxrReserved__21pxr_double_conversion6Bignum14EnsureCapacityEi.exit.i

19:                                               ; preds = %8
  tail call void @abort() #11
  unreachable

.preheader.i:                                     ; preds = %_ZN32pxrInternal_v0_24__pxrReserved__21pxr_double_conversion6Bignum14EnsureCapacityEi.exit.i, %_ZN32pxrInternal_v0_24__pxrReserved__21pxr_double_conversion6Bignum14EnsureCapacityEi.exit.preheader.i
  %20 = icmp sgt i32 %11, 0
  br i1 %20, label %.lr.ph20.i, label %._crit_edge.i

.lr.ph20.i:                                       ; preds = %.preheader.i
  %21 = getelementptr inbounds nuw i8, ptr %0, i64 4
  %22 = zext nneg i32 %11 to i64
  %23 = shl nuw nsw i64 %22, 2
  tail call void @llvm.memset.p0.i64(ptr nonnull align 4 %21, i8 0, i64 %23, i1 false)
  br label %._crit_edge.i

_ZN32pxrInternal_v0_24__pxrReserved__21pxr_double_conversion6Bignum14EnsureCapacityEi.exit.i: ; preds = %_ZN32pxrInternal_v0_24__pxrReserved__21pxr_double_conversion6Bignum14EnsureCapacityEi.exit.i, %.lr.ph.i
  %indvars.iv.i = phi i64 [ %17, %.lr.ph.i ], [ %indvars.iv.next.i, %_ZN32pxrInternal_v0_24__pxrReserved__21pxr_double_conversion6Bignum14EnsureCapacityEi.exit.i ]
  %indvars.iv.next.i = add nsw i64 %indvars.iv.i, -1
  %24 = getelementptr inbounds [128 x i32], ptr %16, i64 0, i64 %indvars.iv.next.i
  %25 = load i32, ptr %24, align 4
  %26 = add nsw i64 %indvars.iv.next.i, %18
  %27 = getelementptr inbounds [128 x i32], ptr %16, i64 0, i64 %26
  store i32 %25, ptr %27, align 4
  %28 = icmp ugt i64 %indvars.iv.i, 1
  br i1 %28, label %_ZN32pxrInternal_v0_24__pxrReserved__21pxr_double_conversion6Bignum14EnsureCapacityEi.exit.i, label %.preheader.i, !llvm.loop !19

._crit_edge.i:                                    ; preds = %.lr.ph20.i, %.preheader.i
  %29 = load i16, ptr %0, align 4
  %30 = trunc i32 %11 to i16
  %31 = add i16 %29, %30
  store i16 %31, ptr %0, align 4
  %32 = load i16, ptr %3, align 2
  %33 = sub i16 %32, %30
  store i16 %33, ptr %3, align 2
  %.pre65 = load i16, ptr %5, align 2
  br label %_ZN32pxrInternal_v0_24__pxrReserved__21pxr_double_conversion6Bignum5AlignERKS1_.exit

_ZN32pxrInternal_v0_24__pxrReserved__21pxr_double_conversion6Bignum5AlignERKS1_.exit: ; preds = %2, %._crit_edge.i
  %34 = phi i16 [ %6, %2 ], [ %.pre65, %._crit_edge.i ]
  %35 = phi i16 [ %4, %2 ], [ %33, %._crit_edge.i ]
  %36 = phi i16 [ %.pre, %2 ], [ %31, %._crit_edge.i ]
  %37 = sext i16 %36 to i32
  %38 = sext i16 %35 to i32
  %39 = add nsw i32 %38, %37
  %40 = load i16, ptr %1, align 4
  %41 = sext i16 %40 to i32
  %42 = sext i16 %34 to i32
  %43 = add nsw i32 %42, %41
  %.sroa.speculated35 = tail call i32 @llvm.smax.i32(i32 %39, i32 %43)
  %reass.sub = sub nsw i32 %.sroa.speculated35, %38
  %44 = icmp sgt i32 %reass.sub, 127
  br i1 %44, label %45, label %_ZN32pxrInternal_v0_24__pxrReserved__21pxr_double_conversion6Bignum14EnsureCapacityEi.exit

45:                                               ; preds = %_ZN32pxrInternal_v0_24__pxrReserved__21pxr_double_conversion6Bignum5AlignERKS1_.exit
  tail call void @abort() #11
  unreachable

_ZN32pxrInternal_v0_24__pxrReserved__21pxr_double_conversion6Bignum14EnsureCapacityEi.exit: ; preds = %_ZN32pxrInternal_v0_24__pxrReserved__21pxr_double_conversion6Bignum5AlignERKS1_.exit
  %46 = sub nsw i32 %42, %38
  %47 = icmp sgt i32 %46, %37
  br i1 %47, label %.lr.ph, label %.preheader42

.lr.ph:                                           ; preds = %_ZN32pxrInternal_v0_24__pxrReserved__21pxr_double_conversion6Bignum14EnsureCapacityEi.exit
  %48 = sext i16 %36 to i64
  %49 = shl nsw i64 %48, 2
  %50 = getelementptr i8, ptr %0, i64 %49
  %scevgep = getelementptr i8, ptr %50, i64 4
  %51 = xor i32 %38, -1
  %52 = add nsw i32 %51, %42
  %53 = sub nsw i32 %52, %37
  %54 = zext i32 %53 to i64
  %55 = shl nuw nsw i64 %54, 2
  %56 = add nuw nsw i64 %55, 4
  tail call void @llvm.memset.p0.i64(ptr noundef nonnull align 4 dereferenceable(1) %scevgep, i8 0, i64 %56, i1 false)
  %.pre66 = load i16, ptr %1, align 4
  br label %.preheader42

.preheader42:                                     ; preds = %.lr.ph, %_ZN32pxrInternal_v0_24__pxrReserved__21pxr_double_conversion6Bignum14EnsureCapacityEi.exit
  %57 = phi i16 [ %.pre66, %.lr.ph ], [ %40, %_ZN32pxrInternal_v0_24__pxrReserved__21pxr_double_conversion6Bignum14EnsureCapacityEi.exit ]
  %58 = icmp sgt i16 %57, 0
  br i1 %58, label %.lr.ph47, label %._crit_edge

.lr.ph47:                                         ; preds = %.preheader42
  %59 = getelementptr inbounds nuw i8, ptr %0, i64 4
  %60 = getelementptr inbounds nuw i8, ptr %1, i64 4
  %61 = sext i32 %46 to i64
  br label %65

.preheader:                                       ; preds = %72
  %62 = trunc nsw i64 %indvars.iv.next58 to i32
  %.not49 = icmp ult i32 %77, 268435456
  br i1 %.not49, label %._crit_edge, label %.lr.ph52

.lr.ph52:                                         ; preds = %.preheader
  %63 = getelementptr inbounds nuw i8, ptr %0, i64 4
  %sext = shl i64 %indvars.iv.next58, 32
  %64 = ashr exact i64 %sext, 32
  br label %84

65:                                               ; preds = %.lr.ph47, %72
  %indvars.iv57 = phi i64 [ %61, %.lr.ph47 ], [ %indvars.iv.next58, %72 ]
  %indvars.iv = phi i64 [ 0, %.lr.ph47 ], [ %indvars.iv.next, %72 ]
  %.046 = phi i32 [ 0, %.lr.ph47 ], [ %80, %72 ]
  %66 = load i16, ptr %0, align 4
  %67 = sext i16 %66 to i64
  %68 = icmp slt i64 %indvars.iv57, %67
  br i1 %68, label %69, label %72

69:                                               ; preds = %65
  %70 = getelementptr inbounds [128 x i32], ptr %59, i64 0, i64 %indvars.iv57
  %71 = load i32, ptr %70, align 4
  br label %72

72:                                               ; preds = %65, %69
  %73 = phi i32 [ %71, %69 ], [ 0, %65 ]
  %74 = getelementptr inbounds [128 x i32], ptr %60, i64 0, i64 %indvars.iv
  %75 = load i32, ptr %74, align 4
  %76 = add i32 %73, %.046
  %77 = add i32 %76, %75
  %78 = and i32 %77, 268435455
  %79 = getelementptr inbounds [128 x i32], ptr %59, i64 0, i64 %indvars.iv57
  store i32 %78, ptr %79, align 4
  %80 = lshr i32 %77, 28
  %indvars.iv.next58 = add nsw i64 %indvars.iv57, 1
  %indvars.iv.next = add nuw nsw i64 %indvars.iv, 1
  %81 = load i16, ptr %1, align 4
  %82 = sext i16 %81 to i64
  %83 = icmp slt i64 %indvars.iv.next, %82
  br i1 %83, label %65, label %.preheader, !llvm.loop !20

84:                                               ; preds = %.lr.ph52, %91
  %indvars.iv62 = phi i64 [ %64, %.lr.ph52 ], [ %indvars.iv.next63, %91 ]
  %.151 = phi i32 [ %80, %.lr.ph52 ], [ %96, %91 ]
  %85 = load i16, ptr %0, align 4
  %86 = sext i16 %85 to i64
  %87 = icmp slt i64 %indvars.iv62, %86
  br i1 %87, label %88, label %91

88:                                               ; preds = %84
  %89 = getelementptr inbounds [128 x i32], ptr %63, i64 0, i64 %indvars.iv62
  %90 = load i32, ptr %89, align 4
  br label %91

91:                                               ; preds = %84, %88
  %92 = phi i32 [ %90, %88 ], [ 0, %84 ]
  %93 = add i32 %92, %.151
  %94 = and i32 %93, 268435455
  %95 = getelementptr inbounds [128 x i32], ptr %63, i64 0, i64 %indvars.iv62
  store i32 %94, ptr %95, align 4
  %96 = lshr i32 %93, 28
  %indvars.iv.next63 = add nsw i64 %indvars.iv62, 1
  %.not = icmp ult i32 %93, 268435456
  br i1 %.not, label %._crit_edge.loopexit, label %84, !llvm.loop !21

._crit_edge.loopexit:                             ; preds = %91
  %97 = trunc nsw i64 %indvars.iv.next63 to i32
  br label %._crit_edge

._crit_edge:                                      ; preds = %.preheader42, %._crit_edge.loopexit, %.preheader
  %.141.lcssa = phi i32 [ %62, %.preheader ], [ %97, %._crit_edge.loopexit ], [ %46, %.preheader42 ]
  %98 = load i16, ptr %0, align 4
  %99 = sext i16 %98 to i32
  %.sroa.speculated = tail call i32 @llvm.smax.i32(i32 %.141.lcssa, i32 %99)
  %100 = trunc i32 %.sroa.speculated to i16
  store i16 %100, ptr %0, align 4
  ret void
}